target datalayout = "e-m:e-p270:32:32-p271:32:32-p272:64:64-i64:64-i128:128-f80:128-n8:16:32:64-S128"
target triple = "x86_64-pc-linux-gnu"

@.str = private unnamed_addr constant [13 x i8] c"libcups.so.2\00", align 1
@.str.1 = private unnamed_addr constant [11 x i8] c"libcups.so\00", align 1
@.str.2 = private unnamed_addr constant [11 x i8] c"cupsServer\00", align 1
@j2d_cupsServer = hidden global ptr null, align 8
@.str.3 = private unnamed_addr constant [8 x i8] c"ippPort\00", align 1
@j2d_ippPort = hidden global ptr null, align 8
@.str.4 = private unnamed_addr constant [12 x i8] c"httpConnect\00", align 1
@j2d_httpConnect = hidden global ptr null, align 8
@.str.5 = private unnamed_addr constant [10 x i8] c"httpClose\00", align 1
@j2d_httpClose = hidden global ptr null, align 8
@.str.6 = private unnamed_addr constant [11 x i8] c"cupsGetPPD\00", align 1
@j2d_cupsGetPPD = hidden global ptr null, align 8
@.str.7 = private unnamed_addr constant [12 x i8] c"cupsGetDest\00", align 1
@j2d_cupsGetDest = hidden global ptr null, align 8
@.str.8 = private unnamed_addr constant [13 x i8] c"cupsGetDests\00", align 1
@j2d_cupsGetDests = hidden global ptr null, align 8
@.str.9 = private unnamed_addr constant [14 x i8] c"cupsFreeDests\00", align 1
@j2d_cupsFreeDests = hidden global ptr null, align 8
@.str.10 = private unnamed_addr constant [12 x i8] c"ppdOpenFile\00", align 1
@j2d_ppdOpenFile = hidden global ptr null, align 8
@.str.11 = private unnamed_addr constant [9 x i8] c"ppdClose\00", align 1
@j2d_ppdClose = hidden global ptr null, align 8
@.str.12 = private unnamed_addr constant [14 x i8] c"ppdFindOption\00", align 1
@j2d_ppdFindOption = hidden global ptr null, align 8
@.str.13 = private unnamed_addr constant [12 x i8] c"ppdPageSize\00", align 1
@j2d_ppdPageSize = hidden global ptr null, align 8

; Function Attrs: nounwind uwtable
define zeroext i8 @Java_sun_print_CUPSPrinter_initIDs(ptr noundef %0, ptr noundef %1) #0 {
  %3 = alloca i8, align 1
  %4 = alloca ptr, align 8
  %5 = alloca ptr, align 8
  %6 = alloca ptr, align 8
  store ptr %0, ptr %4, align 8
  store ptr %1, ptr %5, align 8
  %7 = call ptr @dlopen(ptr noundef @.str, i32 noundef 257) #4
  store ptr %7, ptr %6, align 8
  %8 = load ptr, ptr %6, align 8
  %9 = icmp eq ptr %8, null
  br i1 %9, label %10, label %16

10:                                               ; preds = %2
  %11 = call ptr @dlopen(ptr noundef @.str.1, i32 noundef 257) #4
  store ptr %11, ptr %6, align 8
  %12 = load ptr, ptr %6, align 8
  %13 = icmp eq ptr %12, null
  br i1 %13, label %14, label %15

14:                                               ; preds = %10
  store i8 0, ptr %3, align 1
  br label %113

15:                                               ; preds = %10
  br label %16

16:                                               ; preds = %15, %2
  %17 = load ptr, ptr %6, align 8
  %18 = call ptr @dlsym(ptr noundef %17, ptr noundef @.str.2) #4
  store ptr %18, ptr @j2d_cupsServer, align 8
  %19 = load ptr, ptr @j2d_cupsServer, align 8
  %20 = icmp eq ptr %19, null
  br i1 %20, label %21, label %24

21:                                               ; preds = %16
  %22 = load ptr, ptr %6, align 8
  %23 = call i32 @dlclose(ptr noundef %22) #4
  store i8 0, ptr %3, align 1
  br label %113

24:                                               ; preds = %16
  %25 = load ptr, ptr %6, align 8
  %26 = call ptr @dlsym(ptr noundef %25, ptr noundef @.str.3) #4
  store ptr %26, ptr @j2d_ippPort, align 8
  %27 = load ptr, ptr @j2d_ippPort, align 8
  %28 = icmp eq ptr %27, null
  br i1 %28, label %29, label %32

29:                                               ; preds = %24
  %30 = load ptr, ptr %6, align 8
  %31 = call i32 @dlclose(ptr noundef %30) #4
  store i8 0, ptr %3, align 1
  br label %113

32:                                               ; preds = %24
  %33 = load ptr, ptr %6, align 8
  %34 = call ptr @dlsym(ptr noundef %33, ptr noundef @.str.4) #4
  store ptr %34, ptr @j2d_httpConnect, align 8
  %35 = load ptr, ptr @j2d_httpConnect, align 8
  %36 = icmp eq ptr %35, null
  br i1 %36, label %37, label %40

37:                                               ; preds = %32
  %38 = load ptr, ptr %6, align 8
  %39 = call i32 @dlclose(ptr noundef %38) #4
  store i8 0, ptr %3, align 1
  br label %113

40:                                               ; preds = %32
  %41 = load ptr, ptr %6, align 8
  %42 = call ptr @dlsym(ptr noundef %41, ptr noundef @.str.5) #4
  store ptr %42, ptr @j2d_httpClose, align 8
  %43 = load ptr, ptr @j2d_httpClose, align 8
  %44 = icmp eq ptr %43, null
  br i1 %44, label %45, label %48

45:                                               ; preds = %40
  %46 = load ptr, ptr %6, align 8
  %47 = call i32 @dlclose(ptr noundef %46) #4
  store i8 0, ptr %3, align 1
  br label %113

48:                                               ; preds = %40
  %49 = load ptr, ptr %6, align 8
  %50 = call ptr @dlsym(ptr noundef %49, ptr noundef @.str.6) #4
  store ptr %50, ptr @j2d_cupsGetPPD, align 8
  %51 = load ptr, ptr @j2d_cupsGetPPD, align 8
  %52 = icmp eq ptr %51, null
  br i1 %52, label %53, label %56

53:                                               ; preds = %48
  %54 = load ptr, ptr %6, align 8
  %55 = call i32 @dlclose(ptr noundef %54) #4
  store i8 0, ptr %3, align 1
  br label %113

56:                                               ; preds = %48
  %57 = load ptr, ptr %6, align 8
  %58 = call ptr @dlsym(ptr noundef %57, ptr noundef @.str.7) #4
  store ptr %58, ptr @j2d_cupsGetDest, align 8
  %59 = load ptr, ptr @j2d_cupsGetDest, align 8
  %60 = icmp eq ptr %59, null
  br i1 %60, label %61, label %64

61:                                               ; preds = %56
  %62 = load ptr, ptr %6, align 8
  %63 = call i32 @dlclose(ptr noundef %62) #4
  store i8 0, ptr %3, align 1
  br label %113

64:                                               ; preds = %56
  %65 = load ptr, ptr %6, align 8
  %66 = call ptr @dlsym(ptr noundef %65, ptr noundef @.str.8) #4
  store ptr %66, ptr @j2d_cupsGetDests, align 8
  %67 = load ptr, ptr @j2d_cupsGetDests, align 8
  %68 = icmp eq ptr %67, null
  br i1 %68, label %69, label %72

69:                                               ; preds = %64
  %70 = load ptr, ptr %6, align 8
  %71 = call i32 @dlclose(ptr noundef %70) #4
  store i8 0, ptr %3, align 1
  br label %113

72:                                               ; preds = %64
  %73 = load ptr, ptr %6, align 8
  %74 = call ptr @dlsym(ptr noundef %73, ptr noundef @.str.9) #4
  store ptr %74, ptr @j2d_cupsFreeDests, align 8
  %75 = load ptr, ptr @j2d_cupsFreeDests, align 8
  %76 = icmp eq ptr %75, null
  br i1 %76, label %77, label %80

77:                                               ; preds = %72
  %78 = load ptr, ptr %6, align 8
  %79 = call i32 @dlclose(ptr noundef %78) #4
  store i8 0, ptr %3, align 1
  br label %113

80:                                               ; preds = %72
  %81 = load ptr, ptr %6, align 8
  %82 = call ptr @dlsym(ptr noundef %81, ptr noundef @.str.10) #4
  store ptr %82, ptr @j2d_ppdOpenFile, align 8
  %83 = load ptr, ptr @j2d_ppdOpenFile, align 8
  %84 = icmp eq ptr %83, null
  br i1 %84, label %85, label %88

85:                                               ; preds = %80
  %86 = load ptr, ptr %6, align 8
  %87 = call i32 @dlclose(ptr noundef %86) #4
  store i8 0, ptr %3, align 1
  br label %113

88:                                               ; preds = %80
  %89 = load ptr, ptr %6, align 8
  %90 = call ptr @dlsym(ptr noundef %89, ptr noundef @.str.11) #4
  store ptr %90, ptr @j2d_ppdClose, align 8
  %91 = load ptr, ptr @j2d_ppdClose, align 8
  %92 = icmp eq ptr %91, null
  br i1 %92, label %93, label %96

93:                                               ; preds = %88
  %94 = load ptr, ptr %6, align 8
  %95 = call i32 @dlclose(ptr noundef %94) #4
  store i8 0, ptr %3, align 1
  br label %113

96:                                               ; preds = %88
  %97 = load ptr, ptr %6, align 8
  %98 = call ptr @dlsym(ptr noundef %97, ptr noundef @.str.12) #4
  store ptr %98, ptr @j2d_ppdFindOption, align 8
  %99 = load ptr, ptr @j2d_ppdFindOption, align 8
  %100 = icmp eq ptr %99, null
  br i1 %100, label %101, label %104

101:                                              ; preds = %96
  %102 = load ptr, ptr %6, align 8
  %103 = call i32 @dlclose(ptr noundef %102) #4
  store i8 0, ptr %3, align 1
  br label %113

104:                                              ; preds = %96
  %105 = load ptr, ptr %6, align 8
  %106 = call ptr @dlsym(ptr noundef %105, ptr noundef @.str.13) #4
  store ptr %106, ptr @j2d_ppdPageSize, align 8
  %107 = load ptr, ptr @j2d_ppdPageSize, align 8
  %108 = icmp eq ptr %107, null
  br i1 %108, label %109, label %112

109:                                              ; preds = %104
  %110 = load ptr, ptr %6, align 8
  %111 = call i32 @dlclose(ptr noundef %110) #4
  store i8 0, ptr %3, align 1
  br label %113

112:                                              ; preds = %104
  store i8 1, ptr %3, align 1
  br label %113

113:                                              ; preds = %112, %109, %101, %93, %85, %77, %69, %61, %53, %45, %37, %29, %21, %14
  %114 = load i8, ptr %3, align 1
  ret i8 %114
}