; Function Attrs: nounwind uwtable
define zeroext range(i8 0, 2) i8 @Java_sun_print_CUPSPrinter_initIDs(ptr nocapture noundef readnone %0, ptr nocapture noundef readnone %1) local_unnamed_addr #0 {
  %3 = tail call ptr @dlopen(ptr noundef nonnull @.str, i32 noundef 257) #5
  %4 = icmp eq ptr %3, null
  br i1 %4, label %5, label %8

5:                                                ; preds = %2
  %6 = tail call ptr @dlopen(ptr noundef nonnull @.str.1, i32 noundef 257) #5
  %7 = icmp eq ptr %6, null
  br i1 %7, label %45, label %8

8:                                                ; preds = %5, %2
  %.0 = phi ptr [ %6, %5 ], [ %3, %2 ]
  %9 = tail call ptr @dlsym(ptr noundef nonnull %.0, ptr noundef nonnull @.str.2) #5
  store ptr %9, ptr @j2d_cupsServer, align 8
  %10 = icmp eq ptr %9, null
  br i1 %10, label %.sink.split, label %11

11:                                               ; preds = %8
  %12 = tail call ptr @dlsym(ptr noundef nonnull %.0, ptr noundef nonnull @.str.3) #5
  store ptr %12, ptr @j2d_ippPort, align 8
  %13 = icmp eq ptr %12, null
  br i1 %13, label %.sink.split, label %14

14:                                               ; preds = %11
  %15 = tail call ptr @dlsym(ptr noundef nonnull %.0, ptr noundef nonnull @.str.4) #5
  store ptr %15, ptr @j2d_httpConnect, align 8
  %16 = icmp eq ptr %15, null
  br i1 %16, label %.sink.split, label %17

17:                                               ; preds = %14
  %18 = tail call ptr @dlsym(ptr noundef nonnull %.0, ptr noundef nonnull @.str.5) #5
  store ptr %18, ptr @j2d_httpClose, align 8
  %19 = icmp eq ptr %18, null
  br i1 %19, label %.sink.split, label %20

20:                                               ; preds = %17
  %21 = tail call ptr @dlsym(ptr noundef nonnull %.0, ptr noundef nonnull @.str.6) #5
  store ptr %21, ptr @j2d_cupsGetPPD, align 8
  %22 = icmp eq ptr %21, null
  br i1 %22, label %.sink.split, label %23

23:                                               ; preds = %20
  %24 = tail call ptr @dlsym(ptr noundef nonnull %.0, ptr noundef nonnull @.str.7) #5
  store ptr %24, ptr @j2d_cupsGetDest, align 8
  %25 = icmp eq ptr %24, null
  br i1 %25, label %.sink.split, label %26

26:                                               ; preds = %23
  %27 = tail call ptr @dlsym(ptr noundef nonnull %.0, ptr noundef nonnull @.str.8) #5
  store ptr %27, ptr @j2d_cupsGetDests, align 8
  %28 = icmp eq ptr %27, null
  br i1 %28, label %.sink.split, label %29

29:                                               ; preds = %26
  %30 = tail call ptr @dlsym(ptr noundef nonnull %.0, ptr noundef nonnull @.str.9) #5
  store ptr %30, ptr @j2d_cupsFreeDests, align 8
  %31 = icmp eq ptr %30, null
  br i1 %31, label %.sink.split, label %32

32:                                               ; preds = %29
  %33 = tail call ptr @dlsym(ptr noundef nonnull %.0, ptr noundef nonnull @.str.10) #5
  store ptr %33, ptr @j2d_ppdOpenFile, align 8
  %34 = icmp eq ptr %33, null
  br i1 %34, label %.sink.split, label %35

35:                                               ; preds = %32
  %36 = tail call ptr @dlsym(ptr noundef nonnull %.0, ptr noundef nonnull @.str.11) #5
  store ptr %36, ptr @j2d_ppdClose, align 8
  %37 = icmp eq ptr %36, null
  br i1 %37, label %.sink.split, label %38

38:                                               ; preds = %35
  %39 = tail call ptr @dlsym(ptr noundef nonnull %.0, ptr noundef nonnull @.str.12) #5
  store ptr %39, ptr @j2d_ppdFindOption, align 8
  %40 = icmp eq ptr %39, null
  br i1 %40, label %.sink.split, label %41

41:                                               ; preds = %38
  %42 = tail call ptr @dlsym(ptr noundef nonnull %.0, ptr noundef nonnull @.str.13) #5
  store ptr %42, ptr @j2d_ppdPageSize, align 8
  %43 = icmp eq ptr %42, null
  br i1 %43, label %.sink.split, label %45

.sink.split:                                      ; preds = %41, %38, %35, %32, %29, %26, %23, %20, %17, %14, %11, %8
  %44 = tail call i32 @dlclose(ptr noundef nonnull %.0) #5
  br label %45

45:                                               ; preds = %.sink.split, %41, %5
  %.026 = phi i8 [ 0, %5 ], [ 1, %41 ], [ 0, %.sink.split ]
  ret i8 %.026
}